target datalayout = "e-m:e-p270:32:32-p271:32:32-p272:64:64-i64:64-i128:128-f80:128-n8:16:32:64-S128"
target triple = "x86_64-pc-linux-gnu"

%struct.SDL_WindowData = type { ptr, ptr, ptr, ptr, ptr, ptr, ptr, %union.anon, i32, i32, i32, i32, ptr, ptr, ptr, ptr, ptr, ptr, ptr, ptr, ptr, ptr, ptr, ptr, ptr, ptr, %struct.SDL_AtomicInt, ptr, i32, ptr, double, ptr, i32, i32, i32, i32, %struct.anon.3, %struct.anon.4, %struct.anon.5, %struct.anon.6, %struct.anon.7, %struct.anon.8, %struct.anon.9, i32, i32, i32, i64, i32, i32, i8, i8, i8, i8, i8, i8, i8, i8, i8, i8, i8, i8, i8, i8, i32, %struct.wl_list }
%union.anon = type { %struct.anon }
%struct.anon = type { ptr, %union.anon.0, i8 }
%union.anon.0 = type { %struct.anon.2 }
%struct.anon.2 = type { ptr, ptr }
%struct.SDL_AtomicInt = type { i32 }
%struct.anon.3 = type { double, double }
%struct.anon.4 = type { i32, i32, i32, i32 }
%struct.anon.5 = type { i32, i32, i32, i32 }
%struct.anon.6 = type { i32, i32 }
%struct.anon.7 = type { i32, i32 }
%struct.anon.8 = type { i32, i32 }
%struct.anon.9 = type { i32, i32, i8 }
%struct.wl_list = type { ptr, ptr }
%struct.SDL_Window = type { i32, ptr, ptr, i32, i32, i32, i32, i32, i32, i32, i32, float, float, i32, i32, i64, i64, float, i8, i8, i32, i32, %struct.SDL_Rect, %struct.SDL_Rect, %struct.SDL_Rect, i8, i8, i8, %struct.SDL_DisplayMode, %struct.SDL_DisplayMode, %struct.SDL_HDROutputProperties, float, ptr, i8, i8, i8, i8, i8, i8, i8, i8, i8, i32, i32, i32, i32, %struct.SDL_Rect, i32, i8, %struct.SDL_Rect, i32, %struct.SDL_Rect, ptr, ptr, i32, float, i32, i32, ptr, ptr, ptr, ptr, ptr, ptr, ptr, ptr, ptr }
%struct.SDL_DisplayMode = type { i32, i32, i32, i32, float, float, i32, i32, ptr }
%struct.SDL_HDROutputProperties = type { float, float }
%struct.SDL_Rect = type { i32, i32, i32, i32 }

; Function Attrs: nounwind uwtable
define internal double @GetWindowScale(ptr noundef %0) #0 {
  %2 = alloca ptr, align 8
  store ptr %0, ptr %2, align 8
  %3 = load ptr, ptr %2, align 8
  %4 = getelementptr inbounds nuw %struct.SDL_Window, ptr %3, i32 0, i32 15
  %5 = load i64, ptr %4, align 8
  %6 = and i64 %5, 8192
  %7 = icmp ne i64 %6, 0
  br i1 %7, label %15, label %8

8:                                                ; preds = %1
  %9 = load ptr, ptr %2, align 8
  %10 = getelementptr inbounds nuw %struct.SDL_Window, ptr %9, i32 0, i32 59
  %11 = load ptr, ptr %10, align 8
  %12 = getelementptr inbounds nuw %struct.SDL_WindowData, ptr %11, i32 0, i32 60
  %13 = load i8, ptr %12, align 1, !range !5, !noundef !6
  %14 = trunc i8 %13 to i1
  br i1 %14, label %15, label %21

15:                                               ; preds = %8, %1
  %16 = load ptr, ptr %2, align 8
  %17 = getelementptr inbounds nuw %struct.SDL_Window, ptr %16, i32 0, i32 59
  %18 = load ptr, ptr %17, align 8
  %19 = getelementptr inbounds nuw %struct.SDL_WindowData, ptr %18, i32 0, i32 30
  %20 = load double, ptr %19, align 8
  br label %22

21:                                               ; preds = %8
  br label %22

22:                                               ; preds = %21, %15
  %23 = phi double [ %20, %15 ], [ 1.000000e+00, %21 ]
  ret double %23
}

; Function Attrs: nounwind uwtable
define internal void @CommitLibdecorFrame(ptr noundef %0) #0 {
  %2 = alloca ptr, align 8
  store ptr %0, ptr %2, align 8
  ret void
}

; Function Attrs: nounwind uwtable
define internal i32 @PointToPixel(ptr noundef %0, i32 noundef %1) #0 {
  %3 = alloca ptr, align 8
  %4 = alloca i32, align 4
  store ptr %0, ptr %3, align 8
  store i32 %1, ptr %4, align 4
  %5 = load i32, ptr %4, align 4
  %6 = icmp ne i32 %5, 0
  br i1 %6, label %7, label %27

7:                                                ; preds = %2
  %8 = load i32, ptr %4, align 4
  %9 = sitofp i32 %8 to double
  %10 = load ptr, ptr %3, align 8
  %11 = call double @GetWindowScale(ptr noundef %10)
  %12 = call double @llvm.fmuladd.f64(double %9, double %11, double 0x3EB0C6F7A0B5ED8D)
  %13 = call i64 @SDL_lround_REAL(double noundef %12)
  %14 = trunc i64 %13 to i32
  %15 = icmp sgt i32 %14, 1
  br i1 %15, label %16, label %24

16:                                               ; preds = %7
  %17 = load i32, ptr %4, align 4
  %18 = sitofp i32 %17 to double
  %19 = load ptr, ptr %3, align 8
  %20 = call double @GetWindowScale(ptr noundef %19)
  %21 = call double @llvm.fmuladd.f64(double %18, double %20, double 0x3EB0C6F7A0B5ED8D)
  %22 = call i64 @SDL_lround_REAL(double noundef %21)
  %23 = trunc i64 %22 to i32
  br label %25

24:                                               ; preds = %7
  br label %25

25:                                               ; preds = %24, %16
  %26 = phi i32 [ %23, %16 ], [ 1, %24 ]
  br label %28

27:                                               ; preds = %2
  br label %28

28:                                               ; preds = %27, %25
  %29 = phi i32 [ %26, %25 ], [ 0, %27 ]
  ret i32 %29
}

; Function Attrs: nounwind uwtable
define internal i32 @PixelToPoint(ptr noundef %0, i32 noundef %1) #0 {
  %3 = alloca ptr, align 8
  %4 = alloca i32, align 4
  store ptr %0, ptr %3, align 8
  store i32 %1, ptr %4, align 4
  %5 = load i32, ptr %4, align 4
  %6 = icmp ne i32 %5, 0
  br i1 %6, label %7, label %27

7:                                                ; preds = %2
  %8 = load i32, ptr %4, align 4
  %9 = sitofp i32 %8 to double
  %10 = load ptr, ptr %3, align 8
  %11 = call double @GetWindowScale(ptr noundef %10)
  %12 = fdiv double %9, %11
  %13 = call i64 @SDL_lround_REAL(double noundef %12)
  %14 = trunc i64 %13 to i32
  %15 = icmp sgt i32 %14, 1
  br i1 %15, label %16, label %24

16:                                               ; preds = %7
  %17 = load i32, ptr %4, align 4
  %18 = sitofp i32 %17 to double
  %19 = load ptr, ptr %3, align 8
  %20 = call double @GetWindowScale(ptr noundef %19)
  %21 = fdiv double %18, %20
  %22 = call i64 @SDL_lround_REAL(double noundef %21)
  %23 = trunc i64 %22 to i32
  br label %25

24:                                               ; preds = %7
  br label %25

25:                                               ; preds = %24, %16
  %26 = phi i32 [ %23, %16 ], [ 1, %24 ]
  br label %28

27:                                               ; preds = %2
  br label %28

28:                                               ; preds = %27, %25
  %29 = phi i32 [ %26, %25 ], [ 0, %27 ]
  ret i32 %29
}

; Function Attrs: nounwind uwtable
define internal void @Wayland_HandlePreferredScaleChanged(ptr noundef %0, double noundef %1) #0 {
  %3 = alloca ptr, align 8
  %4 = alloca double, align 8
  %5 = alloca double, align 8
  store ptr %0, ptr %3, align 8
  store double %1, ptr %4, align 8
  call void @llvm.lifetime.start.p0(i64 8, ptr %5) #10
  %6 = load ptr, ptr %3, align 8
  %7 = getelementptr inbounds nuw %struct.SDL_WindowData, ptr %6, i32 0, i32 30
  %8 = load double, ptr %7, align 8
  store double %8, ptr %5, align 8
  %9 = load ptr, ptr %3, align 8
  %10 = getelementptr inbounds nuw %struct.SDL_WindowData, ptr %9, i32 0, i32 17
  %11 = load ptr, ptr %10, align 8
  %12 = icmp ne ptr %11, null
  br i1 %12, label %16, label %13

13:                                               ; preds = %2
  %14 = load double, ptr %4, align 8
  %15 = call double @SDL_ceil_REAL(double noundef %14)
  store double %15, ptr %4, align 8
  br label %16

16:                                               ; preds = %13, %2
  %17 = load double, ptr %4, align 8
  %18 = load double, ptr %5, align 8
  %19 = fcmp une double %17, %18
  br i1 %19, label %20, label %102

20:                                               ; preds = %16
  %21 = load double, ptr %4, align 8
  %22 = load ptr, ptr %3, align 8
  %23 = getelementptr inbounds nuw %struct.SDL_WindowData, ptr %22, i32 0, i32 30
  store double %21, ptr %23, align 8
  %24 = load ptr, ptr %3, align 8
  %25 = getelementptr inbounds nuw %struct.SDL_WindowData, ptr %24, i32 0, i32 60
  %26 = load i8, ptr %25, align 1, !range !5, !noundef !6
  %27 = trunc i8 %26 to i1
  br i1 %27, label %28, label %80

28:                                               ; preds = %20
  %29 = load ptr, ptr %3, align 8
  %30 = getelementptr inbounds nuw %struct.SDL_WindowData, ptr %29, i32 0, i32 49
  %31 = load i8, ptr %30, align 8, !range !5, !noundef !6
  %32 = trunc i8 %31 to i1
  br i1 %32, label %33, label %56

33:                                               ; preds = %28
  %34 = load ptr, ptr %3, align 8
  %35 = getelementptr inbounds nuw %struct.SDL_WindowData, ptr %34, i32 0, i32 0
  %36 = load ptr, ptr %35, align 8
  %37 = load ptr, ptr %3, align 8
  %38 = getelementptr inbounds nuw %struct.SDL_WindowData, ptr %37, i32 0, i32 37
  %39 = getelementptr inbounds nuw %struct.anon.4, ptr %38, i32 0, i32 2
  %40 = load i32, ptr %39, align 8
  %41 = call i32 @PixelToPoint(ptr noundef %36, i32 noundef %40)
  %42 = load ptr, ptr %3, align 8
  %43 = getelementptr inbounds nuw %struct.SDL_WindowData, ptr %42, i32 0, i32 37
  %44 = getelementptr inbounds nuw %struct.anon.4, ptr %43, i32 0, i32 0
  store i32 %41, ptr %44, align 8
  %45 = load ptr, ptr %3, align 8
  %46 = getelementptr inbounds nuw %struct.SDL_WindowData, ptr %45, i32 0, i32 0
  %47 = load ptr, ptr %46, align 8
  %48 = load ptr, ptr %3, align 8
  %49 = getelementptr inbounds nuw %struct.SDL_WindowData, ptr %48, i32 0, i32 37
  %50 = getelementptr inbounds nuw %struct.anon.4, ptr %49, i32 0, i32 3
  %51 = load i32, ptr %50, align 4
  %52 = call i32 @PixelToPoint(ptr noundef %47, i32 noundef %51)
  %53 = load ptr, ptr %3, align 8
  %54 = getelementptr inbounds nuw %struct.SDL_WindowData, ptr %53, i32 0, i32 37
  %55 = getelementptr inbounds nuw %struct.anon.4, ptr %54, i32 0, i32 1
  store i32 %52, ptr %55, align 4
  br label %79

56:                                               ; preds = %28
  %57 = load ptr, ptr %3, align 8
  %58 = getelementptr inbounds nuw %struct.SDL_WindowData, ptr %57, i32 0, i32 0
  %59 = load ptr, ptr %58, align 8
  %60 = load ptr, ptr %3, align 8
  %61 = getelementptr inbounds nuw %struct.SDL_WindowData, ptr %60, i32 0, i32 37
  %62 = getelementptr inbounds nuw %struct.anon.4, ptr %61, i32 0, i32 0
  %63 = load i32, ptr %62, align 8
  %64 = call i32 @PointToPixel(ptr noundef %59, i32 noundef %63)
  %65 = load ptr, ptr %3, align 8
  %66 = getelementptr inbounds nuw %struct.SDL_WindowData, ptr %65, i32 0, i32 37
  %67 = getelementptr inbounds nuw %struct.anon.4, ptr %66, i32 0, i32 2
  store i32 %64, ptr %67, align 8
  %68 = load ptr, ptr %3, align 8
  %69 = getelementptr inbounds nuw %struct.SDL_WindowData, ptr %68, i32 0, i32 0
  %70 = load ptr, ptr %69, align 8
  %71 = load ptr, ptr %3, align 8
  %72 = getelementptr inbounds nuw %struct.SDL_WindowData, ptr %71, i32 0, i32 37
  %73 = getelementptr inbounds nuw %struct.anon.4, ptr %72, i32 0, i32 1
  %74 = load i32, ptr %73, align 4
  %75 = call i32 @PointToPixel(ptr noundef %70, i32 noundef %74)
  %76 = load ptr, ptr %3, align 8
  %77 = getelementptr inbounds nuw %struct.SDL_WindowData, ptr %76, i32 0, i32 37
  %78 = getelementptr inbounds nuw %struct.anon.4, ptr %77, i32 0, i32 3
  store i32 %75, ptr %78, align 4
  br label %79

79:                                               ; preds = %56, %33
  br label %80

80:                                               ; preds = %79, %20
  %81 = load ptr, ptr %3, align 8
  %82 = getelementptr inbounds nuw %struct.SDL_WindowData, ptr %81, i32 0, i32 0
  %83 = load ptr, ptr %82, align 8
  %84 = getelementptr inbounds nuw %struct.SDL_Window, ptr %83, i32 0, i32 15
  %85 = load i64, ptr %84, align 8
  %86 = and i64 %85, 8192
  %87 = icmp ne i64 %86, 0
  br i1 %87, label %93, label %88

88:                                               ; preds = %80
  %89 = load ptr, ptr %3, align 8
  %90 = getelementptr inbounds nuw %struct.SDL_WindowData, ptr %89, i32 0, i32 60
  %91 = load i8, ptr %90, align 1, !range !5, !noundef !6
  %92 = trunc i8 %91 to i1
  br i1 %92, label %93, label %101

93:                                               ; preds = %88, %80
  %94 = load ptr, ptr %3, align 8
  %95 = getelementptr inbounds nuw %struct.SDL_WindowData, ptr %94, i32 0, i32 0
  %96 = load ptr, ptr %95, align 8
  %97 = call zeroext i1 @ConfigureWindowGeometry(ptr noundef %96)
  %98 = load ptr, ptr %3, align 8
  %99 = getelementptr inbounds nuw %struct.SDL_WindowData, ptr %98, i32 0, i32 0
  %100 = load ptr, ptr %99, align 8
  call void @CommitLibdecorFrame(ptr noundef %100)
  br label %101

101:                                              ; preds = %93, %88
  br label %102

102:                                              ; preds = %101, %16
  call void @llvm.lifetime.end.p0(i64 8, ptr %5) #10
  ret void
}