; Function Attrs: nounwind uwtable
define internal fastcc void @Wayland_HandlePreferredScaleChanged(ptr noundef captures(none) %0, double noundef %1) unnamed_addr #0 {
  %3 = getelementptr inbounds nuw i8, ptr %0, i64 248
  %4 = load double, ptr %3, align 8
  %5 = getelementptr inbounds nuw i8, ptr %0, i64 144
  %6 = load ptr, ptr %5, align 8
  %.not = icmp eq ptr %6, null
  br i1 %.not, label %7, label %9

7:                                                ; preds = %2
  %8 = tail call double @SDL_ceil_REAL(double noundef %1) #15
  br label %9

9:                                                ; preds = %7, %2
  %.0 = phi double [ %1, %2 ], [ %8, %7 ]
  %10 = fcmp une double %.0, %4
  br i1 %10, label %11, label %173

11:                                               ; preds = %9
  store double %.0, ptr %3, align 8
  %12 = getelementptr inbounds nuw i8, ptr %0, i64 403
  %13 = load i8, ptr %12, align 1, !range !5, !noundef !6
  %14 = trunc nuw i8 %13 to i1
  br i1 %14, label %15, label %163

15:                                               ; preds = %11
  %16 = getelementptr inbounds nuw i8, ptr %0, i64 392
  %17 = load i8, ptr %16, align 8, !range !5, !noundef !6
  %18 = trunc nuw i8 %17 to i1
  %19 = getelementptr inbounds nuw i8, ptr %0, i64 296
  br i1 %18, label %20, label %90

20:                                               ; preds = %15
  %21 = getelementptr inbounds nuw i8, ptr %0, i64 304
  %22 = load i32, ptr %21, align 8
  %.not.i = icmp eq i32 %22, 0
  br i1 %.not.i, label %PixelToPoint.exit, label %23

23:                                               ; preds = %20
  %24 = load ptr, ptr %0, align 8
  %25 = sitofp i32 %22 to double
  %26 = getelementptr inbounds nuw i8, ptr %24, i64 72
  %27 = load i64, ptr %26, align 8
  %28 = and i64 %27, 8192
  %.not.i.i = icmp eq i64 %28, 0
  %29 = getelementptr inbounds nuw i8, ptr %24, i64 392
  %30 = load ptr, ptr %29, align 8
  br i1 %.not.i.i, label %31, label %._crit_edge.i.i

31:                                               ; preds = %23
  %32 = getelementptr inbounds nuw i8, ptr %30, i64 403
  %33 = load i8, ptr %32, align 1, !range !5, !noundef !6
  %34 = trunc nuw i8 %33 to i1
  br i1 %34, label %._crit_edge.i.i, label %GetWindowScale.exit.i

._crit_edge.i.i:                                  ; preds = %31, %23
  %35 = getelementptr inbounds nuw i8, ptr %30, i64 248
  %36 = load double, ptr %35, align 8
  br label %GetWindowScale.exit.i

GetWindowScale.exit.i:                            ; preds = %._crit_edge.i.i, %31
  %37 = phi double [ %36, %._crit_edge.i.i ], [ 1.000000e+00, %31 ]
  %38 = fdiv double %25, %37
  %39 = tail call i64 @SDL_lround_REAL(double noundef %38) #15
  %40 = trunc i64 %39 to i32
  %41 = icmp sgt i32 %40, 1
  br i1 %41, label %42, label %PixelToPoint.exit

42:                                               ; preds = %GetWindowScale.exit.i
  %43 = load i64, ptr %26, align 8
  %44 = and i64 %43, 8192
  %.not.i4.i = icmp eq i64 %44, 0
  %45 = load ptr, ptr %29, align 8
  br i1 %.not.i4.i, label %46, label %._crit_edge.i5.i

46:                                               ; preds = %42
  %47 = getelementptr inbounds nuw i8, ptr %45, i64 403
  %48 = load i8, ptr %47, align 1, !range !5, !noundef !6
  %49 = trunc nuw i8 %48 to i1
  br i1 %49, label %._crit_edge.i5.i, label %GetWindowScale.exit6.i

._crit_edge.i5.i:                                 ; preds = %46, %42
  %50 = getelementptr inbounds nuw i8, ptr %45, i64 248
  %51 = load double, ptr %50, align 8
  br label %GetWindowScale.exit6.i

GetWindowScale.exit6.i:                           ; preds = %._crit_edge.i5.i, %46
  %52 = phi double [ %51, %._crit_edge.i5.i ], [ 1.000000e+00, %46 ]
  %53 = fdiv double %25, %52
  %54 = tail call i64 @SDL_lround_REAL(double noundef %53) #15
  %55 = trunc i64 %54 to i32
  br label %PixelToPoint.exit

PixelToPoint.exit:                                ; preds = %20, %GetWindowScale.exit.i, %GetWindowScale.exit6.i
  %56 = phi i32 [ %55, %GetWindowScale.exit6.i ], [ 1, %GetWindowScale.exit.i ], [ 0, %20 ]
  store i32 %56, ptr %19, align 8
  %57 = getelementptr inbounds nuw i8, ptr %0, i64 308
  %58 = load i32, ptr %57, align 4
  %.not.i26 = icmp eq i32 %58, 0
  br i1 %.not.i26, label %.sink.split, label %59

59:                                               ; preds = %PixelToPoint.exit
  %60 = load ptr, ptr %0, align 8
  %61 = sitofp i32 %58 to double
  %62 = getelementptr inbounds nuw i8, ptr %60, i64 72
  %63 = load i64, ptr %62, align 8
  %64 = and i64 %63, 8192
  %.not.i.i27 = icmp eq i64 %64, 0
  %65 = getelementptr inbounds nuw i8, ptr %60, i64 392
  %66 = load ptr, ptr %65, align 8
  br i1 %.not.i.i27, label %67, label %._crit_edge.i.i28

67:                                               ; preds = %59
  %68 = getelementptr inbounds nuw i8, ptr %66, i64 403
  %69 = load i8, ptr %68, align 1, !range !5, !noundef !6
  %70 = trunc nuw i8 %69 to i1
  br i1 %70, label %._crit_edge.i.i28, label %GetWindowScale.exit.i29

._crit_edge.i.i28:                                ; preds = %67, %59
  %71 = getelementptr inbounds nuw i8, ptr %66, i64 248
  %72 = load double, ptr %71, align 8
  br label %GetWindowScale.exit.i29

GetWindowScale.exit.i29:                          ; preds = %._crit_edge.i.i28, %67
  %73 = phi double [ %72, %._crit_edge.i.i28 ], [ 1.000000e+00, %67 ]
  %74 = fdiv double %61, %73
  %75 = tail call i64 @SDL_lround_REAL(double noundef %74) #15
  %76 = trunc i64 %75 to i32
  %77 = icmp sgt i32 %76, 1
  br i1 %77, label %78, label %.sink.split

78:                                               ; preds = %GetWindowScale.exit.i29
  %79 = load i64, ptr %62, align 8
  %80 = and i64 %79, 8192
  %.not.i4.i30 = icmp eq i64 %80, 0
  %81 = load ptr, ptr %65, align 8
  br i1 %.not.i4.i30, label %82, label %._crit_edge.i5.i31

82:                                               ; preds = %78
  %83 = getelementptr inbounds nuw i8, ptr %81, i64 403
  %84 = load i8, ptr %83, align 1, !range !5, !noundef !6
  %85 = trunc nuw i8 %84 to i1
  br i1 %85, label %._crit_edge.i5.i31, label %GetWindowScale.exit6.i32

._crit_edge.i5.i31:                               ; preds = %82, %78
  %86 = getelementptr inbounds nuw i8, ptr %81, i64 248
  %87 = load double, ptr %86, align 8
  br label %GetWindowScale.exit6.i32

GetWindowScale.exit6.i32:                         ; preds = %._crit_edge.i5.i31, %82
  %88 = phi double [ %87, %._crit_edge.i5.i31 ], [ 1.000000e+00, %82 ]
  %89 = fdiv double %61, %88
  br label %.sink.split.sink.split

90:                                               ; preds = %15
  %91 = load i32, ptr %19, align 8
  %.not.i34 = icmp eq i32 %91, 0
  br i1 %.not.i34, label %PointToPixel.exit, label %92

92:                                               ; preds = %90
  %93 = load ptr, ptr %0, align 8
  %94 = sitofp i32 %91 to double
  %95 = getelementptr inbounds nuw i8, ptr %93, i64 72
  %96 = load i64, ptr %95, align 8
  %97 = and i64 %96, 8192
  %.not.i.i35 = icmp eq i64 %97, 0
  %98 = getelementptr inbounds nuw i8, ptr %93, i64 392
  %99 = load ptr, ptr %98, align 8
  br i1 %.not.i.i35, label %100, label %._crit_edge.i.i36

100:                                              ; preds = %92
  %101 = getelementptr inbounds nuw i8, ptr %99, i64 403
  %102 = load i8, ptr %101, align 1, !range !5, !noundef !6
  %103 = trunc nuw i8 %102 to i1
  br i1 %103, label %._crit_edge.i.i36, label %GetWindowScale.exit.i37

._crit_edge.i.i36:                                ; preds = %100, %92
  %104 = getelementptr inbounds nuw i8, ptr %99, i64 248
  %105 = load double, ptr %104, align 8
  br label %GetWindowScale.exit.i37

GetWindowScale.exit.i37:                          ; preds = %._crit_edge.i.i36, %100
  %106 = phi double [ %105, %._crit_edge.i.i36 ], [ 1.000000e+00, %100 ]
  %107 = tail call double @llvm.fmuladd.f64(double %94, double %106, double 0x3EB0C6F7A0B5ED8D)
  %108 = tail call i64 @SDL_lround_REAL(double noundef %107) #15
  %109 = trunc i64 %108 to i32
  %110 = icmp sgt i32 %109, 1
  br i1 %110, label %111, label %PointToPixel.exit

111:                                              ; preds = %GetWindowScale.exit.i37
  %112 = load i64, ptr %95, align 8
  %113 = and i64 %112, 8192
  %.not.i4.i38 = icmp eq i64 %113, 0
  %114 = load ptr, ptr %98, align 8
  br i1 %.not.i4.i38, label %115, label %._crit_edge.i5.i39

115:                                              ; preds = %111
  %116 = getelementptr inbounds nuw i8, ptr %114, i64 403
  %117 = load i8, ptr %116, align 1, !range !5, !noundef !6
  %118 = trunc nuw i8 %117 to i1
  br i1 %118, label %._crit_edge.i5.i39, label %GetWindowScale.exit6.i40

._crit_edge.i5.i39:                               ; preds = %115, %111
  %119 = getelementptr inbounds nuw i8, ptr %114, i64 248
  %120 = load double, ptr %119, align 8
  br label %GetWindowScale.exit6.i40

GetWindowScale.exit6.i40:                         ; preds = %._crit_edge.i5.i39, %115
  %121 = phi double [ %120, %._crit_edge.i5.i39 ], [ 1.000000e+00, %115 ]
  %122 = tail call double @llvm.fmuladd.f64(double %94, double %121, double 0x3EB0C6F7A0B5ED8D)
  %123 = tail call i64 @SDL_lround_REAL(double noundef %122) #15
  %124 = trunc i64 %123 to i32
  br label %PointToPixel.exit

PointToPixel.exit:                                ; preds = %90, %GetWindowScale.exit.i37, %GetWindowScale.exit6.i40
  %125 = phi i32 [ %124, %GetWindowScale.exit6.i40 ], [ 1, %GetWindowScale.exit.i37 ], [ 0, %90 ]
  %126 = getelementptr inbounds nuw i8, ptr %0, i64 304
  store i32 %125, ptr %126, align 8
  %127 = getelementptr inbounds nuw i8, ptr %0, i64 300
  %128 = load i32, ptr %127, align 4
  %.not.i41 = icmp eq i32 %128, 0
  br i1 %.not.i41, label %.sink.split, label %129

129:                                              ; preds = %PointToPixel.exit
  %130 = load ptr, ptr %0, align 8
  %131 = sitofp i32 %128 to double
  %132 = getelementptr inbounds nuw i8, ptr %130, i64 72
  %133 = load i64, ptr %132, align 8
  %134 = and i64 %133, 8192
  %.not.i.i42 = icmp eq i64 %134, 0
  %135 = getelementptr inbounds nuw i8, ptr %130, i64 392
  %136 = load ptr, ptr %135, align 8
  br i1 %.not.i.i42, label %137, label %._crit_edge.i.i43

137:                                              ; preds = %129
  %138 = getelementptr inbounds nuw i8, ptr %136, i64 403
  %139 = load i8, ptr %138, align 1, !range !5, !noundef !6
  %140 = trunc nuw i8 %139 to i1
  br i1 %140, label %._crit_edge.i.i43, label %GetWindowScale.exit.i44

._crit_edge.i.i43:                                ; preds = %137, %129
  %141 = getelementptr inbounds nuw i8, ptr %136, i64 248
  %142 = load double, ptr %141, align 8
  br label %GetWindowScale.exit.i44

GetWindowScale.exit.i44:                          ; preds = %._crit_edge.i.i43, %137
  %143 = phi double [ %142, %._crit_edge.i.i43 ], [ 1.000000e+00, %137 ]
  %144 = tail call double @llvm.fmuladd.f64(double %131, double %143, double 0x3EB0C6F7A0B5ED8D)
  %145 = tail call i64 @SDL_lround_REAL(double noundef %144) #15
  %146 = trunc i64 %145 to i32
  %147 = icmp sgt i32 %146, 1
  br i1 %147, label %148, label %.sink.split

148:                                              ; preds = %GetWindowScale.exit.i44
  %149 = load i64, ptr %132, align 8
  %150 = and i64 %149, 8192
  %.not.i4.i45 = icmp eq i64 %150, 0
  %151 = load ptr, ptr %135, align 8
  br i1 %.not.i4.i45, label %152, label %._crit_edge.i5.i46

152:                                              ; preds = %148
  %153 = getelementptr inbounds nuw i8, ptr %151, i64 403
  %154 = load i8, ptr %153, align 1, !range !5, !noundef !6
  %155 = trunc nuw i8 %154 to i1
  br i1 %155, label %._crit_edge.i5.i46, label %GetWindowScale.exit6.i47

._crit_edge.i5.i46:                               ; preds = %152, %148
  %156 = getelementptr inbounds nuw i8, ptr %151, i64 248
  %157 = load double, ptr %156, align 8
  br label %GetWindowScale.exit6.i47

GetWindowScale.exit6.i47:                         ; preds = %._crit_edge.i5.i46, %152
  %158 = phi double [ %157, %._crit_edge.i5.i46 ], [ 1.000000e+00, %152 ]
  %159 = tail call double @llvm.fmuladd.f64(double %131, double %158, double 0x3EB0C6F7A0B5ED8D)
  br label %.sink.split.sink.split

.sink.split.sink.split:                           ; preds = %GetWindowScale.exit6.i32, %GetWindowScale.exit6.i47
  %.sink52 = phi double [ %159, %GetWindowScale.exit6.i47 ], [ %89, %GetWindowScale.exit6.i32 ]
  %.sink50.ph = phi i64 [ 308, %GetWindowScale.exit6.i47 ], [ 300, %GetWindowScale.exit6.i32 ]
  %160 = tail call i64 @SDL_lround_REAL(double noundef %.sink52) #15
  %161 = trunc i64 %160 to i32
  br label %.sink.split

.sink.split:                                      ; preds = %.sink.split.sink.split, %GetWindowScale.exit.i44, %PointToPixel.exit, %GetWindowScale.exit.i29, %PixelToPoint.exit
  %.sink50 = phi i64 [ 300, %PixelToPoint.exit ], [ 300, %GetWindowScale.exit.i29 ], [ 308, %PointToPixel.exit ], [ 308, %GetWindowScale.exit.i44 ], [ %.sink50.ph, %.sink.split.sink.split ]
  %.sink = phi i32 [ 0, %PixelToPoint.exit ], [ 1, %GetWindowScale.exit.i29 ], [ 0, %PointToPixel.exit ], [ 1, %GetWindowScale.exit.i44 ], [ %161, %.sink.split.sink.split ]
  %162 = getelementptr inbounds nuw i8, ptr %0, i64 %.sink50
  store i32 %.sink, ptr %162, align 4
  br label %163

163:                                              ; preds = %.sink.split, %11
  %164 = load ptr, ptr %0, align 8
  %165 = getelementptr inbounds nuw i8, ptr %164, i64 72
  %166 = load i64, ptr %165, align 8
  %167 = and i64 %166, 8192
  %.not25 = icmp eq i64 %167, 0
  br i1 %.not25, label %168, label %171

168:                                              ; preds = %163
  %169 = load i8, ptr %12, align 1, !range !5, !noundef !6
  %170 = trunc nuw i8 %169 to i1
  br i1 %170, label %171, label %173

171:                                              ; preds = %168, %163
  %172 = tail call fastcc zeroext i1 @ConfigureWindowGeometry(ptr noundef nonnull %164)
  br label %173

173:                                              ; preds = %168, %171, %9
  ret void
}